ccopy_reg
_reconstructor
p1
(csklearn.preprocessing.label
LabelEncoder
p2
c__builtin__
object
p3
NtRp4
(dp5
S'classes_'
p6
cnumpy.core.multiarray
_reconstruct
p7
(cnumpy
ndarray
p8
(I0
tS'b'
tRp9
(I1
(L27L
tcnumpy
dtype
p10
(S'O8'
I0
I1
tRp11
(I3
S'|'
NNNI-1
I-1
I63
tbI00
(lp12
Fnan
aS' '
aS'<'
aS'A'
aS'C'
aS'D'
aS'E'
aS'F'
aS'G'
aS'H'
aS'I'
aS'K'
aS'L'
aS'M'
aS'N'
aS'O'
aS'P'
aS'Q'
aS'R'
aS'S'
aS'T'
aS'U'
aS'V'
aS'W'
aS'X'
aS'Z'
aS'd'
atbsS'_sklearn_version'
p13
S'0.18.1'
p14
sb.